---
triple:          'arm64-apple-darwin'
binary-path:     '/Users/alya/Desktop/Tic-Tac-Toe/main'
relocations:
  - { offsetInCU: 0x52, offset: 0x52, size: 0x8, addend: 0x0, symName: _fontFile, symObjAddr: 0x6D5E0, symBinAddr: 0x10000C010, symSize: 0x0 }
  - { offsetInCU: 0xEEF7, offset: 0xEEF7, size: 0x8, addend: 0x0, symName: __ZNSt3__17advanceB7v160006IPN2sf6VertexEmmvEEvRT_T0_, symObjAddr: 0x1CB8, symBinAddr: 0x100003CEC, symSize: 0x50 }
  - { offsetInCU: 0xF44C, offset: 0xF44C, size: 0x8, addend: 0x0, symName: __ZNSt3__124__put_character_sequenceB7v160006IcNS_11char_traitsIcEEEERNS_13basic_ostreamIT_T0_EES7_PKS4_m, symObjAddr: 0x4880, symBinAddr: 0x1000068B4, symSize: 0x1F4 }
  - { offsetInCU: 0x10F8F, offset: 0x10F8F, size: 0x8, addend: 0x0, symName: __ZNSt3__1lsB7v160006INS_11char_traitsIcEEEERNS_13basic_ostreamIcT_EES6_PKc, symObjAddr: 0x11C, symBinAddr: 0x100002150, symSize: 0x48 }
  - { offsetInCU: 0x10FD5, offset: 0x10FD5, size: 0x8, addend: 0x0, symName: __ZNSt3__14endlB7v160006IcNS_11char_traitsIcEEEERNS_13basic_ostreamIT_T0_EES7_, symObjAddr: 0x190, symBinAddr: 0x1000021C4, symSize: 0x58 }
  - { offsetInCU: 0x11015, offset: 0x11015, size: 0x8, addend: 0x0, symName: __ZNSt3__18distanceB7v160006IPN2sf6VertexEEENS_15iterator_traitsIT_E15difference_typeES5_S5_, symObjAddr: 0x1C24, symBinAddr: 0x100003C58, symSize: 0x2C }
  - { offsetInCU: 0x11058, offset: 0x11058, size: 0x8, addend: 0x0, symName: __ZNSt3__14copyB7v160006IPN2sf6VertexES3_EET0_T_S5_S4_, symObjAddr: 0x1D08, symBinAddr: 0x100003D3C, symSize: 0x40 }
  - { offsetInCU: 0x110B2, offset: 0x110B2, size: 0x8, addend: 0x0, symName: __ZNSt3__125__debug_db_invalidate_allB7v160006INS_6vectorIN2sf6VertexENS_9allocatorIS3_EEEEEEvPT_, symObjAddr: 0x2058, symBinAddr: 0x10000408C, symSize: 0x10 }
  - { offsetInCU: 0x110E3, offset: 0x110E3, size: 0x8, addend: 0x0, symName: __ZNSt3__110__distanceB7v160006IPN2sf6VertexEEENS_15iterator_traitsIT_E15difference_typeES5_S5_NS_26random_access_iterator_tagE, symObjAddr: 0x2068, symBinAddr: 0x10000409C, symSize: 0x28 }
  - { offsetInCU: 0x11130, offset: 0x11130, size: 0x8, addend: 0x0, symName: __ZNSt3__121__convert_to_integralB7v160006Em, symObjAddr: 0x20F0, symBinAddr: 0x100004124, symSize: 0x14 }
  - { offsetInCU: 0x1115C, offset: 0x1115C, size: 0x8, addend: 0x0, symName: __ZNSt3__19__advanceB7v160006IPN2sf6VertexEEEvRT_NS_15iterator_traitsIS4_E15difference_typeENS_26random_access_iterator_tagE, symObjAddr: 0x2104, symBinAddr: 0x100004138, symSize: 0x30 }
  - { offsetInCU: 0x111A5, offset: 0x111A5, size: 0x8, addend: 0x0, symName: __ZNSt3__16__copyB7v160006INS_17_ClassicAlgPolicyEPN2sf6VertexES4_S4_EENS_4pairIT0_T2_EES6_T1_S7_, symObjAddr: 0x2134, symBinAddr: 0x100004168, symSize: 0x44 }
  - { offsetInCU: 0x11211, offset: 0x11211, size: 0x8, addend: 0x0, symName: __ZNSt3__123__dispatch_copy_or_moveB7v160006INS_17_ClassicAlgPolicyENS_11__copy_loopIS1_EENS_14__copy_trivialEPN2sf6VertexES7_S7_EENS_4pairIT2_T4_EES9_T3_SA_, symObjAddr: 0x2178, symBinAddr: 0x1000041AC, symSize: 0x54 }
  - { offsetInCU: 0x1128F, offset: 0x1128F, size: 0x8, addend: 0x0, symName: __ZNSt3__130__libcpp_is_constant_evaluatedB7v160006Ev, symObjAddr: 0x21CC, symBinAddr: 0x100004200, symSize: 0xC }
  - { offsetInCU: 0x112AC, offset: 0x112AC, size: 0x8, addend: 0x0, symName: __ZNSt3__121__unwrap_and_dispatchB7v160006INS_10__overloadINS_11__copy_loopINS_17_ClassicAlgPolicyEEENS_14__copy_trivialEEEPN2sf6VertexES9_S9_Li0EEENS_4pairIT0_T2_EESB_T1_SC_, symObjAddr: 0x21D8, symBinAddr: 0x10000420C, symSize: 0xB4 }
  - { offsetInCU: 0x1133A, offset: 0x1133A, size: 0x8, addend: 0x0, symName: __ZNSt3__114__unwrap_rangeB7v160006IPN2sf6VertexES3_EENS_4pairIT0_S5_EET_S7_, symObjAddr: 0x228C, symBinAddr: 0x1000042C0, symSize: 0x60 }
  - { offsetInCU: 0x11479, offset: 0x11479, size: 0x8, addend: 0x0, symName: __ZNSt3__113__unwrap_iterB7v160006IPN2sf6VertexENS_18__unwrap_iter_implIS3_Lb1EEELi0EEEDTclsrT0_8__unwrapclsr3stdE7declvalIT_EEEES7_, symObjAddr: 0x2334, symBinAddr: 0x100004368, symSize: 0x24 }
  - { offsetInCU: 0x114BD, offset: 0x114BD, size: 0x8, addend: 0x0, symName: __ZNSt3__19make_pairB7v160006IPN2sf6VertexES3_EENS_4pairINS_18__unwrap_ref_decayIT_E4typeENS5_IT0_E4typeEEEOS6_OS9_, symObjAddr: 0x2358, symBinAddr: 0x10000438C, symSize: 0x38 }
  - { offsetInCU: 0x1150C, offset: 0x1150C, size: 0x8, addend: 0x0, symName: __ZNSt3__114__rewrap_rangeB7v160006IPN2sf6VertexES3_EET_S4_T0_, symObjAddr: 0x2390, symBinAddr: 0x1000043C4, symSize: 0x2C }
  - { offsetInCU: 0x11558, offset: 0x11558, size: 0x8, addend: 0x0, symName: __ZNSt3__113__rewrap_iterB7v160006IPN2sf6VertexES3_NS_18__unwrap_iter_implIS3_Lb1EEEEET_S6_T0_, symObjAddr: 0x23BC, symBinAddr: 0x1000043F0, symSize: 0x50 }
  - { offsetInCU: 0x115AD, offset: 0x115AD, size: 0x8, addend: 0x0, symName: __ZNSt3__119__copy_trivial_implB7v160006IN2sf6VertexES2_EENS_4pairIPT_PT0_EES5_S5_S7_, symObjAddr: 0x240C, symBinAddr: 0x100004440, symSize: 0x8C }
  - { offsetInCU: 0x11615, offset: 0x11615, size: 0x8, addend: 0x0, symName: __ZNSt3__19make_pairB7v160006IRPN2sf6VertexES3_EENS_4pairINS_18__unwrap_ref_decayIT_E4typeENS6_IT0_E4typeEEEOS7_OSA_, symObjAddr: 0x2498, symBinAddr: 0x1000044CC, symSize: 0x38 }
  - { offsetInCU: 0x116B7, offset: 0x116B7, size: 0x8, addend: 0x0, symName: __ZNSt3__112__to_addressB7v160006IN2sf6VertexEEEPT_S4_, symObjAddr: 0x2564, symBinAddr: 0x100004598, symSize: 0x14 }
  - { offsetInCU: 0x116EC, offset: 0x116EC, size: 0x8, addend: 0x0, symName: __ZNSt3__130__uninitialized_allocator_copyB7v160006INS_9allocatorIN2sf6VertexEEEPS3_S5_S5_EET2_RT_T0_T1_S6_, symObjAddr: 0x260C, symBinAddr: 0x100004640, symSize: 0xFC }
  - { offsetInCU: 0x1178A, offset: 0x1178A, size: 0x8, addend: 0x0, symName: __ZNSt3__122__make_exception_guardB7v160006INS_29_AllocatorDestroyRangeReverseINS_9allocatorIN2sf6VertexEEEPS4_EEEENS_28__exception_guard_exceptionsIT_EES9_, symObjAddr: 0x27A8, symBinAddr: 0x1000047DC, symSize: 0x4C }
  - { offsetInCU: 0x117C0, offset: 0x117C0, size: 0x8, addend: 0x0, symName: __ZNSt3__119__allocator_destroyB7v160006INS_9allocatorIN2sf6VertexEEENS_16reverse_iteratorIPS3_EES7_EEvRT_T0_T1_, symObjAddr: 0x2A30, symBinAddr: 0x100004A64, symSize: 0x70 }
  - { offsetInCU: 0x11823, offset: 0x11823, size: 0x8, addend: 0x0, symName: __ZNSt3__1neB7v160006IPN2sf6VertexES3_EEbRKNS_16reverse_iteratorIT_EERKNS4_IT0_EE, symObjAddr: 0x2AD4, symBinAddr: 0x100004B08, symSize: 0x48 }
  - { offsetInCU: 0x1186F, offset: 0x1186F, size: 0x8, addend: 0x0, symName: __ZNSt3__112__to_addressB7v160006INS_16reverse_iteratorIPN2sf6VertexEEEvEENS_5decayIDTclsr19__to_address_helperIT_EE6__callclsr3stdE7declvalIRKS7_EEEEE4typeES9_, symObjAddr: 0x2B48, symBinAddr: 0x100004B7C, symSize: 0x24 }
  - { offsetInCU: 0x118CE, offset: 0x118CE, size: 0x8, addend: 0x0, symName: __ZNSt3__119__libcpp_deallocateB7v160006EPvmm, symObjAddr: 0x2FFC, symBinAddr: 0x100005030, symSize: 0x30 }
  - { offsetInCU: 0x11916, offset: 0x11916, size: 0x8, addend: 0x0, symName: __ZNSt3__127__do_deallocate_handle_sizeB7v160006IJEEEvPvmDpT_, symObjAddr: 0x302C, symBinAddr: 0x100005060, symSize: 0x28 }
  - { offsetInCU: 0x11954, offset: 0x11954, size: 0x8, addend: 0x0, symName: __ZNSt3__124__libcpp_operator_deleteB7v160006IJPvEEEvDpT_, symObjAddr: 0x3054, symBinAddr: 0x100005088, symSize: 0x24 }
  - { offsetInCU: 0x11989, offset: 0x11989, size: 0x8, addend: 0x0, symName: __ZNSt3__119__allocate_at_leastB7v160006INS_9allocatorIN2sf6VertexEEEEENS_19__allocation_resultINS_16allocator_traitsIT_E7pointerEEERS7_m, symObjAddr: 0x3140, symBinAddr: 0x100005174, symSize: 0x40 }
  - { offsetInCU: 0x119CC, offset: 0x119CC, size: 0x8, addend: 0x0, symName: __ZNSt3__13minB7v160006ImEERKT_S3_S3_, symObjAddr: 0x3248, symBinAddr: 0x10000527C, symSize: 0x2C }
  - { offsetInCU: 0x11C10, offset: 0x11C10, size: 0x8, addend: 0x0, symName: __ZNSt3__13minB7v160006ImNS_6__lessImmEEEERKT_S5_S5_T0_, symObjAddr: 0x32D4, symBinAddr: 0x100005308, symSize: 0x54 }
  - { offsetInCU: 0x11CA5, offset: 0x11CA5, size: 0x8, addend: 0x0, symName: __ZNSt3__120__throw_length_errorB7v160006EPKc, symObjAddr: 0x33B4, symBinAddr: 0x1000053E8, symSize: 0x64 }
  - { offsetInCU: 0x11CCD, offset: 0x11CCD, size: 0x8, addend: 0x0, symName: __ZNSt3__117__libcpp_allocateB7v160006Emm, symObjAddr: 0x3558, symBinAddr: 0x10000558C, symSize: 0x28 }
  - { offsetInCU: 0x11D0A, offset: 0x11D0A, size: 0x8, addend: 0x0, symName: __ZNSt3__121__libcpp_operator_newB7v160006IJmEEEPvDpT_, symObjAddr: 0x3580, symBinAddr: 0x1000055B4, symSize: 0x24 }
  - { offsetInCU: 0x11D43, offset: 0x11D43, size: 0x8, addend: 0x0, symName: __ZNSt3__13maxB7v160006ImEERKT_S3_S3_, symObjAddr: 0x35A4, symBinAddr: 0x1000055D8, symSize: 0x2C }
  - { offsetInCU: 0x11D86, offset: 0x11D86, size: 0x8, addend: 0x0, symName: __ZNSt3__13maxB7v160006ImNS_6__lessImmEEEERKT_S5_S5_T0_, symObjAddr: 0x35D0, symBinAddr: 0x100005604, symSize: 0x54 }
  - { offsetInCU: 0x11DE0, offset: 0x11DE0, size: 0x8, addend: 0x0, symName: __ZNSt3__122__make_exception_guardB7v160006INS_6vectorIN2sf6VertexENS_9allocatorIS3_EEE16__destroy_vectorEEENS_28__exception_guard_exceptionsIT_EES9_, symObjAddr: 0x3B44, symBinAddr: 0x100005B78, symSize: 0x40 }
  - { offsetInCU: 0x11E15, offset: 0x11E15, size: 0x8, addend: 0x0, symName: __ZNSt3__119__debug_db_insert_cB7v160006INS_6vectorIN2sf6VertexENS_9allocatorIS3_EEEEEEvPT_, symObjAddr: 0x3BB8, symBinAddr: 0x100005BEC, symSize: 0x10 }
  - { offsetInCU: 0x11E46, offset: 0x11E46, size: 0x8, addend: 0x0, symName: __ZNSt3__118__debug_db_erase_cB7v160006INS_6vectorIN2sf6VertexENS_9allocatorIS3_EEEEEEvPT_, symObjAddr: 0x3EB8, symBinAddr: 0x100005EEC, symSize: 0x10 }
  - { offsetInCU: 0x11E77, offset: 0x11E77, size: 0x8, addend: 0x0, symName: __ZNSt3__118__debug_db_erase_cB7v160006INS_12basic_stringIjNS_11char_traitsIjEENS_9allocatorIjEEEEEEvPT_, symObjAddr: 0x40F0, symBinAddr: 0x100006124, symSize: 0x10 }
  - { offsetInCU: 0x11EA8, offset: 0x11EA8, size: 0x8, addend: 0x0, symName: __ZNSt3__119__debug_db_insert_cB7v160006INS_12basic_stringIcNS_11char_traitsIcEENS_9allocatorIcEEEEEEvPT_, symObjAddr: 0x474C, symBinAddr: 0x100006780, symSize: 0x10 }
  - { offsetInCU: 0x11ED9, offset: 0x11ED9, size: 0x8, addend: 0x0, symName: __ZNSt3__118__constexpr_strlenB7v160006EPKc, symObjAddr: 0x4818, symBinAddr: 0x10000684C, symSize: 0x24 }
  - { offsetInCU: 0x11F05, offset: 0x11F05, size: 0x8, addend: 0x0, symName: __ZNSt3__116__pad_and_outputB7v160006IcNS_11char_traitsIcEEEENS_19ostreambuf_iteratorIT_T0_EES6_PKS4_S8_S8_RNS_8ios_baseES4_, symObjAddr: 0x4A90, symBinAddr: 0x100006AC4, symSize: 0x248 }
  - { offsetInCU: 0x11FD4, offset: 0x11FD4, size: 0x8, addend: 0x0, symName: __ZNSt3__112__to_addressB7v160006IKcEEPT_S3_, symObjAddr: 0x4F10, symBinAddr: 0x100006F44, symSize: 0x14 }
  - { offsetInCU: 0x1203C, offset: 0x1203C, size: 0x8, addend: 0x0, symName: __ZNSt3__19use_facetB7v160006INS_5ctypeIcEEEERKT_RKNS_6localeE, symObjAddr: 0x51E8, symBinAddr: 0x10000721C, symSize: 0x2C }
  - { offsetInCU: 0x1250B, offset: 0x1250B, size: 0x8, addend: 0x0, symName: __ZNSt3__13minB7v160006IfEERKT_S3_S3_, symObjAddr: 0x52AC, symBinAddr: 0x1000072E0, symSize: 0x2C }
  - { offsetInCU: 0x1254E, offset: 0x1254E, size: 0x8, addend: 0x0, symName: __ZNSt3__13maxB7v160006IfEERKT_S3_S3_, symObjAddr: 0x52D8, symBinAddr: 0x10000730C, symSize: 0x2C }
  - { offsetInCU: 0x12591, offset: 0x12591, size: 0x8, addend: 0x0, symName: __ZNSt3__13minB7v160006IfNS_6__lessIffEEEERKT_S5_S5_T0_, symObjAddr: 0x5304, symBinAddr: 0x100007338, symSize: 0x54 }
  - { offsetInCU: 0x12626, offset: 0x12626, size: 0x8, addend: 0x0, symName: __ZNSt3__13maxB7v160006IfNS_6__lessIffEEEERKT_S5_S5_T0_, symObjAddr: 0x538C, symBinAddr: 0x1000073C0, symSize: 0x54 }
  - { offsetInCU: 0x1286A, offset: 0x1286A, size: 0x8, addend: 0x0, symName: __ZSt28__throw_bad_array_new_lengthB7v160006v, symObjAddr: 0x3524, symBinAddr: 0x100005558, symSize: 0x34 }
  - { offsetInCU: 0x12A21, offset: 0x12A21, size: 0x8, addend: 0x0, symName: _windowWidth, symObjAddr: 0x58A4, symBinAddr: 0x10000C000, symSize: 0x0 }
  - { offsetInCU: 0x12A3D, offset: 0x12A3D, size: 0x8, addend: 0x0, symName: _windowMargin, symObjAddr: 0x58A8, symBinAddr: 0x10000C004, symSize: 0x0 }
  - { offsetInCU: 0x12A52, offset: 0x12A52, size: 0x8, addend: 0x0, symName: _playArea, symObjAddr: 0x6D5F8, symBinAddr: 0x10000C028, symSize: 0x0 }
  - { offsetInCU: 0x174B2, offset: 0x174B2, size: 0x8, addend: 0x0, symName: _lineThickness, symObjAddr: 0x58AC, symBinAddr: 0x10000C008, symSize: 0x0 }
  - { offsetInCU: 0x1AB75, offset: 0x1AB75, size: 0x8, addend: 0x0, symName: __ZNSt3__112basic_stringIcNS_11char_traitsIcEENS_9allocatorIcEEEC1B7v160006IDnEEPKc, symObjAddr: 0x0, symBinAddr: 0x100002034, symSize: 0x34 }
  - { offsetInCU: 0x1ABB3, offset: 0x1ABB3, size: 0x8, addend: 0x0, symName: __ZN2sf4RectIfEC1Effff, symObjAddr: 0x34, symBinAddr: 0x100002068, symSize: 0x4C }
  - { offsetInCU: 0x1AC16, offset: 0x1AC16, size: 0x8, addend: 0x0, symName: __Z11updateStateiR5State, symObjAddr: 0x80, symBinAddr: 0x1000020B4, symSize: 0x9C }
  - { offsetInCU: 0x1AC4D, offset: 0x1AC4D, size: 0x8, addend: 0x0, symName: __ZNSt3__113basic_ostreamIcNS_11char_traitsIcEEElsB7v160006EPFRS3_S4_E, symObjAddr: 0x164, symBinAddr: 0x100002198, symSize: 0x2C }
  - { offsetInCU: 0x1AC80, offset: 0x1AC80, size: 0x8, addend: 0x0, symName: __Z20handleLeftMouseClickN2sf5Event16MouseButtonEventEPA3_4Cell, symObjAddr: 0x1E8, symBinAddr: 0x10000221C, symSize: 0x28C }
  - { offsetInCU: 0x1AD49, offset: 0x1AD49, size: 0x8, addend: 0x0, symName: __ZN2sf7Vector2IfEC1Eff, symObjAddr: 0x474, symBinAddr: 0x1000024A8, symSize: 0x3C }
  - { offsetInCU: 0x1AD91, offset: 0x1AD91, size: 0x8, addend: 0x0, symName: __ZNK2sf4RectIfE8containsERKNS_7Vector2IfEE, symObjAddr: 0x4B0, symBinAddr: 0x1000024E4, symSize: 0x3C }
  - { offsetInCU: 0x1ADC7, offset: 0x1ADC7, size: 0x8, addend: 0x0, symName: __ZNK2sf4RectIfE8containsEff, symObjAddr: 0x4EC, symBinAddr: 0x100002520, symSize: 0x144 }
  - { offsetInCU: 0x1AE43, offset: 0x1AE43, size: 0x8, addend: 0x0, symName: __ZNK2sf4RectIfE11getPositionEv, symObjAddr: 0x630, symBinAddr: 0x100002664, symSize: 0x38 }
  - { offsetInCU: 0x1AE6A, offset: 0x1AE6A, size: 0x8, addend: 0x0, symName: __Z15initializeBoardPN2sf14RectangleShapeEff, symObjAddr: 0x668, symBinAddr: 0x10000269C, symSize: 0x304 }
  - { offsetInCU: 0x1AEE3, offset: 0x1AEE3, size: 0x8, addend: 0x0, symName: __ZN2sf14RectangleShapeaSERKS0_, symObjAddr: 0x96C, symBinAddr: 0x1000029A0, symSize: 0x40 }
  - { offsetInCU: 0x1AF14, offset: 0x1AF14, size: 0x8, addend: 0x0, symName: __ZN2sf14RectangleShapeD1Ev, symObjAddr: 0x9AC, symBinAddr: 0x1000029E0, symSize: 0x2C }
  - { offsetInCU: 0x1AF40, offset: 0x1AF40, size: 0x8, addend: 0x0, symName: __ZN2sf14RectangleShapeC1ERKS0_, symObjAddr: 0x9E4, symBinAddr: 0x100002A18, symSize: 0x34 }
  - { offsetInCU: 0x1AF74, offset: 0x1AF74, size: 0x8, addend: 0x0, symName: __Z11eventUpdateRN2sf12RenderWindowEPA3_4Cell, symObjAddr: 0xA18, symBinAddr: 0x100002A4C, symSize: 0x100 }
  - { offsetInCU: 0x1AFB8, offset: 0x1AFB8, size: 0x8, addend: 0x0, symName: __Z10gameUpdateRN2sf12RenderWindowEPNS_14RectangleShapeEPA3_4CellNS_4TextES7_, symObjAddr: 0xB18, symBinAddr: 0x100002B4C, symSize: 0x2DC }
  - { offsetInCU: 0x1B09F, offset: 0x1B09F, size: 0x8, addend: 0x0, symName: _main, symObjAddr: 0xDF4, symBinAddr: 0x100002E28, symSize: 0x948 }
  - { offsetInCU: 0x1B156, offset: 0x1B156, size: 0x8, addend: 0x0, symName: __ZN2sf15ContextSettingsC1Ejjjjjjb, symObjAddr: 0x173C, symBinAddr: 0x100003770, symSize: 0x70 }
  - { offsetInCU: 0x1B1E2, offset: 0x1B1E2, size: 0x8, addend: 0x0, symName: __ZN2sf6StringD1Ev, symObjAddr: 0x17AC, symBinAddr: 0x1000037E0, symSize: 0x2C }
  - { offsetInCU: 0x1B241, offset: 0x1B241, size: 0x8, addend: 0x0, symName: __ZN4CellC1Ev, symObjAddr: 0x17D8, symBinAddr: 0x10000380C, symSize: 0x2C }
  - { offsetInCU: 0x1B272, offset: 0x1B272, size: 0x8, addend: 0x0, symName: __ZN2sf4TextC1ERKS0_, symObjAddr: 0x1804, symBinAddr: 0x100003838, symSize: 0x34 }
  - { offsetInCU: 0x1B2A7, offset: 0x1B2A7, size: 0x8, addend: 0x0, symName: __ZN2sf4TextD1Ev, symObjAddr: 0x1838, symBinAddr: 0x10000386C, symSize: 0x2C }
  - { offsetInCU: 0x1B2DD, offset: 0x1B2DD, size: 0x8, addend: 0x0, symName: __ZN2sf5ShapeaSERKS0_, symObjAddr: 0x1864, symBinAddr: 0x100003898, symSize: 0x9C }
  - { offsetInCU: 0x1B313, offset: 0x1B313, size: 0x8, addend: 0x0, symName: __ZN2sf8DrawableaSERKS0_, symObjAddr: 0x1900, symBinAddr: 0x100003934, symSize: 0x18 }
  - { offsetInCU: 0x1B34E, offset: 0x1B34E, size: 0x8, addend: 0x0, symName: __ZN2sf13TransformableaSERKS0_, symObjAddr: 0x1918, symBinAddr: 0x10000394C, symSize: 0x94 }
  - { offsetInCU: 0x1B389, offset: 0x1B389, size: 0x8, addend: 0x0, symName: __ZN2sf11VertexArrayaSERKS0_, symObjAddr: 0x19AC, symBinAddr: 0x1000039E0, symSize: 0x54 }
  - { offsetInCU: 0x1B3BA, offset: 0x1B3BA, size: 0x8, addend: 0x0, symName: __ZNSt3__16vectorIN2sf6VertexENS_9allocatorIS2_EEEaSB7v160006ERKS5_, symObjAddr: 0x1A00, symBinAddr: 0x100003A34, symSize: 0x68 }
  - { offsetInCU: 0x1B3F1, offset: 0x1B3F1, size: 0x8, addend: 0x0, symName: __ZNSt3__16vectorIN2sf6VertexENS_9allocatorIS2_EEE19__copy_assign_allocB7v160006ERKS5_, symObjAddr: 0x1A68, symBinAddr: 0x100003A9C, symSize: 0x2C }
  - { offsetInCU: 0x1B426, offset: 0x1B426, size: 0x8, addend: 0x0, symName: __ZNSt3__16vectorIN2sf6VertexENS_9allocatorIS2_EEE6assignIPS2_Li0EEEvT_S8_, symObjAddr: 0x1A94, symBinAddr: 0x100003AC8, symSize: 0x17C }
  - { offsetInCU: 0x1B4C6, offset: 0x1B4C6, size: 0x8, addend: 0x0, symName: __ZNSt3__16vectorIN2sf6VertexENS_9allocatorIS2_EEE19__copy_assign_allocB7v160006ERKS5_NS_17integral_constantIbLb0EEE, symObjAddr: 0x1C10, symBinAddr: 0x100003C44, symSize: 0x14 }
  - { offsetInCU: 0x1B504, offset: 0x1B504, size: 0x8, addend: 0x0, symName: __ZNKSt3__16vectorIN2sf6VertexENS_9allocatorIS2_EEE8capacityB7v160006Ev, symObjAddr: 0x1C50, symBinAddr: 0x100003C84, symSize: 0x40 }
  - { offsetInCU: 0x1B52A, offset: 0x1B52A, size: 0x8, addend: 0x0, symName: __ZNKSt3__16vectorIN2sf6VertexENS_9allocatorIS2_EEE4sizeB7v160006Ev, symObjAddr: 0x1C90, symBinAddr: 0x100003CC4, symSize: 0x28 }
  - { offsetInCU: 0x1B550, offset: 0x1B550, size: 0x8, addend: 0x0, symName: __ZNSt3__16vectorIN2sf6VertexENS_9allocatorIS2_EEE18__construct_at_endIPS2_Li0EEEvT_S8_m, symObjAddr: 0x1D48, symBinAddr: 0x100003D7C, symSize: 0x94 }
  - { offsetInCU: 0x1B5C3, offset: 0x1B5C3, size: 0x8, addend: 0x0, symName: __ZNSt3__16vectorIN2sf6VertexENS_9allocatorIS2_EEE17__destruct_at_endB7v160006EPS2_, symObjAddr: 0x1DDC, symBinAddr: 0x100003E10, symSize: 0x88 }
  - { offsetInCU: 0x1B607, offset: 0x1B607, size: 0x8, addend: 0x0, symName: __ZNSt3__16vectorIN2sf6VertexENS_9allocatorIS2_EEE13__vdeallocateEv, symObjAddr: 0x1E64, symBinAddr: 0x100003E98, symSize: 0x8C }
  - { offsetInCU: 0x1B62F, offset: 0x1B62F, size: 0x8, addend: 0x0, symName: __ZNSt3__16vectorIN2sf6VertexENS_9allocatorIS2_EEE11__vallocateB7v160006Em, symObjAddr: 0x1EF0, symBinAddr: 0x100003F24, symSize: 0xB4 }
  - { offsetInCU: 0x1B673, offset: 0x1B673, size: 0x8, addend: 0x0, symName: __ZNKSt3__16vectorIN2sf6VertexENS_9allocatorIS2_EEE11__recommendB7v160006Em, symObjAddr: 0x1FA4, symBinAddr: 0x100003FD8, symSize: 0xB4 }
  - { offsetInCU: 0x1B6C8, offset: 0x1B6C8, size: 0x8, addend: 0x0, symName: __ZNKSt3__16vectorIN2sf6VertexENS_9allocatorIS2_EEE9__end_capB7v160006Ev, symObjAddr: 0x2090, symBinAddr: 0x1000040C4, symSize: 0x28 }
  - { offsetInCU: 0x1B6EE, offset: 0x1B6EE, size: 0x8, addend: 0x0, symName: __ZNKSt3__117__compressed_pairIPN2sf6VertexENS_9allocatorIS2_EEE5firstB7v160006Ev, symObjAddr: 0x20B8, symBinAddr: 0x1000040EC, symSize: 0x24 }
  - { offsetInCU: 0x1B714, offset: 0x1B714, size: 0x8, addend: 0x0, symName: __ZNKSt3__122__compressed_pair_elemIPN2sf6VertexELi0ELb0EE5__getB7v160006Ev, symObjAddr: 0x20DC, symBinAddr: 0x100004110, symSize: 0x14 }
  - { offsetInCU: 0x1B75E, offset: 0x1B75E, size: 0x8, addend: 0x0, symName: __ZNKSt3__114__copy_trivialclB7v160006IN2sf6VertexES3_Li0EEENS_4pairIPT_PT0_EES6_S6_S8_, symObjAddr: 0x22EC, symBinAddr: 0x100004320, symSize: 0x48 }
  - { offsetInCU: 0x1B7C6, offset: 0x1B7C6, size: 0x8, addend: 0x0, symName: __ZNSt3__14pairIPN2sf6VertexES3_EC1B7v160006ERKS3_S6_, symObjAddr: 0x24D0, symBinAddr: 0x100004504, symSize: 0x3C }
  - { offsetInCU: 0x1B80C, offset: 0x1B80C, size: 0x8, addend: 0x0, symName: __ZNSt3__14pairIPN2sf6VertexES3_EC2B7v160006ERKS3_S6_, symObjAddr: 0x250C, symBinAddr: 0x100004540, symSize: 0x34 }
  - { offsetInCU: 0x1B852, offset: 0x1B852, size: 0x8, addend: 0x0, symName: __ZNSt3__118__unwrap_iter_implIPN2sf6VertexELb1EE8__unwrapB7v160006ES3_, symObjAddr: 0x2540, symBinAddr: 0x100004574, symSize: 0x24 }
  - { offsetInCU: 0x1B875, offset: 0x1B875, size: 0x8, addend: 0x0, symName: __ZNSt3__118__unwrap_iter_implIPN2sf6VertexELb1EE8__rewrapB7v160006ES3_S3_, symObjAddr: 0x2578, symBinAddr: 0x1000045AC, symSize: 0x58 }
  - { offsetInCU: 0x1B8BF, offset: 0x1B8BF, size: 0x8, addend: 0x0, symName: __ZNSt3__16vectorIN2sf6VertexENS_9allocatorIS2_EEE21_ConstructTransactionC1B7v160006ERS5_m, symObjAddr: 0x25D0, symBinAddr: 0x100004604, symSize: 0x3C }
  - { offsetInCU: 0x1B907, offset: 0x1B907, size: 0x8, addend: 0x0, symName: __ZNSt3__16vectorIN2sf6VertexENS_9allocatorIS2_EEE7__allocB7v160006Ev, symObjAddr: 0x2708, symBinAddr: 0x10000473C, symSize: 0x28 }
  - { offsetInCU: 0x1B92D, offset: 0x1B92D, size: 0x8, addend: 0x0, symName: __ZNSt3__16vectorIN2sf6VertexENS_9allocatorIS2_EEE21_ConstructTransactionD1B7v160006Ev, symObjAddr: 0x2730, symBinAddr: 0x100004764, symSize: 0x2C }
  - { offsetInCU: 0x1B957, offset: 0x1B957, size: 0x8, addend: 0x0, symName: __ZNSt3__16vectorIN2sf6VertexENS_9allocatorIS2_EEE21_ConstructTransactionC2B7v160006ERS5_m, symObjAddr: 0x275C, symBinAddr: 0x100004790, symSize: 0x4C }
  - { offsetInCU: 0x1B99F, offset: 0x1B99F, size: 0x8, addend: 0x0, symName: __ZNSt3__129_AllocatorDestroyRangeReverseINS_9allocatorIN2sf6VertexEEEPS3_EC1B7v160006ERS4_RS5_S8_, symObjAddr: 0x27F4, symBinAddr: 0x100004828, symSize: 0x44 }
  - { offsetInCU: 0x1B9F6, offset: 0x1B9F6, size: 0x8, addend: 0x0, symName: __ZNSt3__116allocator_traitsINS_9allocatorIN2sf6VertexEEEE9constructB7v160006IS3_JRS3_EvEEvRS4_PT_DpOT0_, symObjAddr: 0x2838, symBinAddr: 0x10000486C, symSize: 0x34 }
  - { offsetInCU: 0x1BA4D, offset: 0x1BA4D, size: 0x8, addend: 0x0, symName: __ZNSt3__128__exception_guard_exceptionsINS_29_AllocatorDestroyRangeReverseINS_9allocatorIN2sf6VertexEEEPS4_EEE10__completeB7v160006Ev, symObjAddr: 0x286C, symBinAddr: 0x1000048A0, symSize: 0x1C }
  - { offsetInCU: 0x1BA73, offset: 0x1BA73, size: 0x8, addend: 0x0, symName: __ZNSt3__128__exception_guard_exceptionsINS_29_AllocatorDestroyRangeReverseINS_9allocatorIN2sf6VertexEEEPS4_EEED1B7v160006Ev, symObjAddr: 0x2888, symBinAddr: 0x1000048BC, symSize: 0x2C }
  - { offsetInCU: 0x1BA9D, offset: 0x1BA9D, size: 0x8, addend: 0x0, symName: __ZNSt3__128__exception_guard_exceptionsINS_29_AllocatorDestroyRangeReverseINS_9allocatorIN2sf6VertexEEEPS4_EEEC1B7v160006ES7_, symObjAddr: 0x28B4, symBinAddr: 0x1000048E8, symSize: 0x34 }
  - { offsetInCU: 0x1BAD6, offset: 0x1BAD6, size: 0x8, addend: 0x0, symName: __ZNSt3__128__exception_guard_exceptionsINS_29_AllocatorDestroyRangeReverseINS_9allocatorIN2sf6VertexEEEPS4_EEEC2B7v160006ES7_, symObjAddr: 0x28E8, symBinAddr: 0x10000491C, symSize: 0x30 }
  - { offsetInCU: 0x1BB0F, offset: 0x1BB0F, size: 0x8, addend: 0x0, symName: __ZNSt3__129_AllocatorDestroyRangeReverseINS_9allocatorIN2sf6VertexEEEPS3_EC2B7v160006ERS4_RS5_S8_, symObjAddr: 0x2918, symBinAddr: 0x10000494C, symSize: 0x38 }
  - { offsetInCU: 0x1BB66, offset: 0x1BB66, size: 0x8, addend: 0x0, symName: __ZNSt3__19allocatorIN2sf6VertexEE9constructB7v160006IS2_JRS2_EEEvPT_DpOT0_, symObjAddr: 0x2950, symBinAddr: 0x100004984, symSize: 0x30 }
  - { offsetInCU: 0x1BBBC, offset: 0x1BBBC, size: 0x8, addend: 0x0, symName: __ZNSt3__128__exception_guard_exceptionsINS_29_AllocatorDestroyRangeReverseINS_9allocatorIN2sf6VertexEEEPS4_EEED2B7v160006Ev, symObjAddr: 0x2980, symBinAddr: 0x1000049B4, symSize: 0x48 }
  - { offsetInCU: 0x1BBE6, offset: 0x1BBE6, size: 0x8, addend: 0x0, symName: __ZNKSt3__129_AllocatorDestroyRangeReverseINS_9allocatorIN2sf6VertexEEEPS3_EclB7v160006Ev, symObjAddr: 0x29C8, symBinAddr: 0x1000049FC, symSize: 0x68 }
  - { offsetInCU: 0x1BC0C, offset: 0x1BC0C, size: 0x8, addend: 0x0, symName: __ZNSt3__116reverse_iteratorIPN2sf6VertexEEC1B7v160006ES3_, symObjAddr: 0x2AA0, symBinAddr: 0x100004AD4, symSize: 0x34 }
  - { offsetInCU: 0x1BC44, offset: 0x1BC44, size: 0x8, addend: 0x0, symName: __ZNSt3__116allocator_traitsINS_9allocatorIN2sf6VertexEEEE7destroyB7v160006IS3_vEEvRS4_PT_, symObjAddr: 0x2B1C, symBinAddr: 0x100004B50, symSize: 0x2C }
  - { offsetInCU: 0x1BC81, offset: 0x1BC81, size: 0x8, addend: 0x0, symName: __ZNSt3__116reverse_iteratorIPN2sf6VertexEEppB7v160006Ev, symObjAddr: 0x2B6C, symBinAddr: 0x100004BA0, symSize: 0x20 }
  - { offsetInCU: 0x1BCA7, offset: 0x1BCA7, size: 0x8, addend: 0x0, symName: __ZNKSt3__116reverse_iteratorIPN2sf6VertexEE4baseB7v160006Ev, symObjAddr: 0x2B8C, symBinAddr: 0x100004BC0, symSize: 0x18 }
  - { offsetInCU: 0x1BCCD, offset: 0x1BCCD, size: 0x8, addend: 0x0, symName: __ZNSt3__19allocatorIN2sf6VertexEE7destroyB7v160006EPS2_, symObjAddr: 0x2BA4, symBinAddr: 0x100004BD8, symSize: 0x14 }
  - { offsetInCU: 0x1BD06, offset: 0x1BD06, size: 0x8, addend: 0x0, symName: __ZNSt3__119__to_address_helperINS_16reverse_iteratorIPN2sf6VertexEEEvE6__callB7v160006ERKS5_, symObjAddr: 0x2BB8, symBinAddr: 0x100004BEC, symSize: 0x4C }
  - { offsetInCU: 0x1BD29, offset: 0x1BD29, size: 0x8, addend: 0x0, symName: __ZNKSt3__116reverse_iteratorIPN2sf6VertexEEptB7v160006Ev, symObjAddr: 0x2C04, symBinAddr: 0x100004C38, symSize: 0x24 }
  - { offsetInCU: 0x1BD4F, offset: 0x1BD4F, size: 0x8, addend: 0x0, symName: __ZNKSt3__116reverse_iteratorIPN2sf6VertexEEdeB7v160006Ev, symObjAddr: 0x2C28, symBinAddr: 0x100004C5C, symSize: 0x28 }
  - { offsetInCU: 0x1BD83, offset: 0x1BD83, size: 0x8, addend: 0x0, symName: __ZNSt3__116reverse_iteratorIPN2sf6VertexEEC2B7v160006ES3_, symObjAddr: 0x2C50, symBinAddr: 0x100004C84, symSize: 0x28 }
  - { offsetInCU: 0x1BDBB, offset: 0x1BDBB, size: 0x8, addend: 0x0, symName: __ZNSt3__117__compressed_pairIPN2sf6VertexENS_9allocatorIS2_EEE6secondB7v160006Ev, symObjAddr: 0x2C78, symBinAddr: 0x100004CAC, symSize: 0x24 }
  - { offsetInCU: 0x1BDE1, offset: 0x1BDE1, size: 0x8, addend: 0x0, symName: __ZNSt3__122__compressed_pair_elemINS_9allocatorIN2sf6VertexEEELi1ELb1EE5__getB7v160006Ev, symObjAddr: 0x2C9C, symBinAddr: 0x100004CD0, symSize: 0x14 }
  - { offsetInCU: 0x1BE07, offset: 0x1BE07, size: 0x8, addend: 0x0, symName: __ZNSt3__16vectorIN2sf6VertexENS_9allocatorIS2_EEE21_ConstructTransactionD2B7v160006Ev, symObjAddr: 0x2CB0, symBinAddr: 0x100004CE4, symSize: 0x20 }
  - { offsetInCU: 0x1BE31, offset: 0x1BE31, size: 0x8, addend: 0x0, symName: __ZNSt3__16vectorIN2sf6VertexENS_9allocatorIS2_EEE27__invalidate_iterators_pastB7v160006EPS2_, symObjAddr: 0x2CD0, symBinAddr: 0x100004D04, symSize: 0x14 }
  - { offsetInCU: 0x1BE68, offset: 0x1BE68, size: 0x8, addend: 0x0, symName: __ZNSt3__16vectorIN2sf6VertexENS_9allocatorIS2_EEE22__base_destruct_at_endB7v160006EPS2_, symObjAddr: 0x2CE4, symBinAddr: 0x100004D18, symSize: 0xA0 }
  - { offsetInCU: 0x1BEAC, offset: 0x1BEAC, size: 0x8, addend: 0x0, symName: __ZNKSt3__16vectorIN2sf6VertexENS_9allocatorIS2_EEE17__annotate_shrinkB7v160006Em, symObjAddr: 0x2D84, symBinAddr: 0x100004DB8, symSize: 0xD0 }
  - { offsetInCU: 0x1BEE1, offset: 0x1BEE1, size: 0x8, addend: 0x0, symName: __ZNKSt3__16vectorIN2sf6VertexENS_9allocatorIS2_EEE31__annotate_contiguous_containerB7v160006EPKvS7_S7_S7_, symObjAddr: 0x2E54, symBinAddr: 0x100004E88, symSize: 0x20 }
  - { offsetInCU: 0x1BF37, offset: 0x1BF37, size: 0x8, addend: 0x0, symName: __ZNKSt3__16vectorIN2sf6VertexENS_9allocatorIS2_EEE4dataB7v160006Ev, symObjAddr: 0x2E74, symBinAddr: 0x100004EA8, symSize: 0x28 }
  - { offsetInCU: 0x1BF5D, offset: 0x1BF5D, size: 0x8, addend: 0x0, symName: __ZNSt3__16vectorIN2sf6VertexENS_9allocatorIS2_EEE5clearB7v160006Ev, symObjAddr: 0x2E9C, symBinAddr: 0x100004ED0, symSize: 0x68 }
  - { offsetInCU: 0x1BF92, offset: 0x1BF92, size: 0x8, addend: 0x0, symName: __ZNSt3__116allocator_traitsINS_9allocatorIN2sf6VertexEEEE10deallocateB7v160006ERS4_PS3_m, symObjAddr: 0x2F04, symBinAddr: 0x100004F38, symSize: 0x34 }
  - { offsetInCU: 0x1BFD4, offset: 0x1BFD4, size: 0x8, addend: 0x0, symName: __ZNSt3__16vectorIN2sf6VertexENS_9allocatorIS2_EEE9__end_capB7v160006Ev, symObjAddr: 0x2F38, symBinAddr: 0x100004F6C, symSize: 0x28 }
  - { offsetInCU: 0x1BFFA, offset: 0x1BFFA, size: 0x8, addend: 0x0, symName: __ZNSt3__16vectorIN2sf6VertexENS_9allocatorIS2_EEE7__clearB7v160006Ev, symObjAddr: 0x2F60, symBinAddr: 0x100004F94, symSize: 0x28 }
  - { offsetInCU: 0x1C020, offset: 0x1C020, size: 0x8, addend: 0x0, symName: __ZNSt3__19allocatorIN2sf6VertexEE10deallocateB7v160006EPS2_m, symObjAddr: 0x2F88, symBinAddr: 0x100004FBC, symSize: 0x74 }
  - { offsetInCU: 0x1C062, offset: 0x1C062, size: 0x8, addend: 0x0, symName: __ZNSt3__117__compressed_pairIPN2sf6VertexENS_9allocatorIS2_EEE5firstB7v160006Ev, symObjAddr: 0x3078, symBinAddr: 0x1000050AC, symSize: 0x24 }
  - { offsetInCU: 0x1C088, offset: 0x1C088, size: 0x8, addend: 0x0, symName: __ZNSt3__122__compressed_pair_elemIPN2sf6VertexELi0ELb0EE5__getB7v160006Ev, symObjAddr: 0x309C, symBinAddr: 0x1000050D0, symSize: 0x14 }
  - { offsetInCU: 0x1C0AE, offset: 0x1C0AE, size: 0x8, addend: 0x0, symName: __ZNKSt3__16vectorIN2sf6VertexENS_9allocatorIS2_EEE8max_sizeEv, symObjAddr: 0x30B0, symBinAddr: 0x1000050E4, symSize: 0x74 }
  - { offsetInCU: 0x1C0D6, offset: 0x1C0D6, size: 0x8, addend: 0x0, symName: __ZNKSt3__16vectorIN2sf6VertexENS_9allocatorIS2_EEE20__throw_length_errorB7v160006Ev, symObjAddr: 0x3124, symBinAddr: 0x100005158, symSize: 0x1C }
  - { offsetInCU: 0x1C0FC, offset: 0x1C0FC, size: 0x8, addend: 0x0, symName: __ZNKSt3__16vectorIN2sf6VertexENS_9allocatorIS2_EEE14__annotate_newB7v160006Em, symObjAddr: 0x3180, symBinAddr: 0x1000051B4, symSize: 0xC8 }
  - { offsetInCU: 0x1C13B, offset: 0x1C13B, size: 0x8, addend: 0x0, symName: __ZNSt3__116allocator_traitsINS_9allocatorIN2sf6VertexEEEE8max_sizeB7v160006IS4_vEEmRKS4_, symObjAddr: 0x3274, symBinAddr: 0x1000052A8, symSize: 0x24 }
  - { offsetInCU: 0x1C169, offset: 0x1C169, size: 0x8, addend: 0x0, symName: __ZNKSt3__16vectorIN2sf6VertexENS_9allocatorIS2_EEE7__allocB7v160006Ev, symObjAddr: 0x3298, symBinAddr: 0x1000052CC, symSize: 0x28 }
  - { offsetInCU: 0x1C18F, offset: 0x1C18F, size: 0x8, addend: 0x0, symName: __ZNSt3__114numeric_limitsIlE3maxB7v160006Ev, symObjAddr: 0x32C0, symBinAddr: 0x1000052F4, symSize: 0x14 }
  - { offsetInCU: 0x1C1AD, offset: 0x1C1AD, size: 0x8, addend: 0x0, symName: __ZNKSt3__16__lessImmEclB7v160006ERKmS3_, symObjAddr: 0x3328, symBinAddr: 0x10000535C, symSize: 0x34 }
  - { offsetInCU: 0x1C1EF, offset: 0x1C1EF, size: 0x8, addend: 0x0, symName: __ZNKSt3__19allocatorIN2sf6VertexEE8max_sizeB7v160006Ev, symObjAddr: 0x335C, symBinAddr: 0x100005390, symSize: 0x18 }
  - { offsetInCU: 0x1C215, offset: 0x1C215, size: 0x8, addend: 0x0, symName: __ZNKSt3__117__compressed_pairIPN2sf6VertexENS_9allocatorIS2_EEE6secondB7v160006Ev, symObjAddr: 0x3374, symBinAddr: 0x1000053A8, symSize: 0x24 }
  - { offsetInCU: 0x1C23B, offset: 0x1C23B, size: 0x8, addend: 0x0, symName: __ZNKSt3__122__compressed_pair_elemINS_9allocatorIN2sf6VertexEEELi1ELb1EE5__getB7v160006Ev, symObjAddr: 0x3398, symBinAddr: 0x1000053CC, symSize: 0x14 }
  - { offsetInCU: 0x1C261, offset: 0x1C261, size: 0x8, addend: 0x0, symName: __ZNSt3__123__libcpp_numeric_limitsIlLb1EE3maxB7v160006Ev, symObjAddr: 0x33AC, symBinAddr: 0x1000053E0, symSize: 0x8 }
  - { offsetInCU: 0x1C275, offset: 0x1C275, size: 0x8, addend: 0x0, symName: __ZNSt12length_errorC1B7v160006EPKc, symObjAddr: 0x3418, symBinAddr: 0x10000544C, symSize: 0x34 }
  - { offsetInCU: 0x1C2AD, offset: 0x1C2AD, size: 0x8, addend: 0x0, symName: __ZNSt12length_errorC2B7v160006EPKc, symObjAddr: 0x344C, symBinAddr: 0x100005480, symSize: 0x4C }
  - { offsetInCU: 0x1C2E5, offset: 0x1C2E5, size: 0x8, addend: 0x0, symName: __ZNSt3__19allocatorIN2sf6VertexEE8allocateB7v160006Em, symObjAddr: 0x3498, symBinAddr: 0x1000054CC, symSize: 0x8C }
  - { offsetInCU: 0x1C319, offset: 0x1C319, size: 0x8, addend: 0x0, symName: __ZN2sf14RectangleShapeD2Ev, symObjAddr: 0x3624, symBinAddr: 0x100005658, symSize: 0x2C }
  - { offsetInCU: 0x1C345, offset: 0x1C345, size: 0x8, addend: 0x0, symName: __ZThn8_N2sf14RectangleShapeD1Ev, symObjAddr: 0x3650, symBinAddr: 0x100005684, symSize: 0x1C }
  - { offsetInCU: 0x1C35B, offset: 0x1C35B, size: 0x8, addend: 0x0, symName: __ZN2sf14RectangleShapeC2ERKS0_, symObjAddr: 0x366C, symBinAddr: 0x1000056A0, symSize: 0x68 }
  - { offsetInCU: 0x1C390, offset: 0x1C390, size: 0x8, addend: 0x0, symName: __ZN2sf5ShapeC2ERKS0_, symObjAddr: 0x36D4, symBinAddr: 0x100005708, symSize: 0x12C }
  - { offsetInCU: 0x1C3C5, offset: 0x1C3C5, size: 0x8, addend: 0x0, symName: __ZN2sf8DrawableC2ERKS0_, symObjAddr: 0x3800, symBinAddr: 0x100005834, symSize: 0x28 }
  - { offsetInCU: 0x1C3FA, offset: 0x1C3FA, size: 0x8, addend: 0x0, symName: __ZN2sf13TransformableC2ERKS0_, symObjAddr: 0x3828, symBinAddr: 0x10000585C, symSize: 0x50 }
  - { offsetInCU: 0x1C42F, offset: 0x1C42F, size: 0x8, addend: 0x0, symName: __ZN2sf11VertexArrayC1ERKS0_, symObjAddr: 0x3878, symBinAddr: 0x1000058AC, symSize: 0x34 }
  - { offsetInCU: 0x1C464, offset: 0x1C464, size: 0x8, addend: 0x0, symName: __ZN2sf11VertexArrayD1Ev, symObjAddr: 0x38AC, symBinAddr: 0x1000058E0, symSize: 0x2C }
  - { offsetInCU: 0x1C490, offset: 0x1C490, size: 0x8, addend: 0x0, symName: __ZN2sf8DrawableD2Ev, symObjAddr: 0x38D8, symBinAddr: 0x10000590C, symSize: 0x14 }
  - { offsetInCU: 0x1C4BA, offset: 0x1C4BA, size: 0x8, addend: 0x0, symName: __ZN2sf8DrawableD1Ev, symObjAddr: 0x38EC, symBinAddr: 0x100005920, symSize: 0x14 }
  - { offsetInCU: 0x1C4E4, offset: 0x1C4E4, size: 0x8, addend: 0x0, symName: __ZN2sf8DrawableD0Ev, symObjAddr: 0x3900, symBinAddr: 0x100005934, symSize: 0xC }
  - { offsetInCU: 0x1C50E, offset: 0x1C50E, size: 0x8, addend: 0x0, symName: __ZN2sf11VertexArrayC2ERKS0_, symObjAddr: 0x390C, symBinAddr: 0x100005940, symSize: 0x9C }
  - { offsetInCU: 0x1C543, offset: 0x1C543, size: 0x8, addend: 0x0, symName: __ZNSt3__16vectorIN2sf6VertexENS_9allocatorIS2_EEEC1ERKS5_, symObjAddr: 0x39A8, symBinAddr: 0x1000059DC, symSize: 0x34 }
  - { offsetInCU: 0x1C57E, offset: 0x1C57E, size: 0x8, addend: 0x0, symName: __ZNSt3__16vectorIN2sf6VertexENS_9allocatorIS2_EEEC2ERKS5_, symObjAddr: 0x39DC, symBinAddr: 0x100005A10, symSize: 0x11C }
  - { offsetInCU: 0x1C5DD, offset: 0x1C5DD, size: 0x8, addend: 0x0, symName: __ZNSt3__116allocator_traitsINS_9allocatorIN2sf6VertexEEEE37select_on_container_copy_constructionB7v160006IS4_vvEES4_RKS4_, symObjAddr: 0x3AF8, symBinAddr: 0x100005B2C, symSize: 0x10 }
  - { offsetInCU: 0x1C618, offset: 0x1C618, size: 0x8, addend: 0x0, symName: __ZNSt3__117__compressed_pairIPN2sf6VertexENS_9allocatorIS2_EEEC1B7v160006IDnS5_EEOT_OT0_, symObjAddr: 0x3B08, symBinAddr: 0x100005B3C, symSize: 0x3C }
  - { offsetInCU: 0x1C670, offset: 0x1C670, size: 0x8, addend: 0x0, symName: __ZNSt3__16vectorIN2sf6VertexENS_9allocatorIS2_EEE16__destroy_vectorC1ERS5_, symObjAddr: 0x3B84, symBinAddr: 0x100005BB8, symSize: 0x34 }
  - { offsetInCU: 0x1C6A9, offset: 0x1C6A9, size: 0x8, addend: 0x0, symName: __ZNSt3__128__exception_guard_exceptionsINS_6vectorIN2sf6VertexENS_9allocatorIS3_EEE16__destroy_vectorEE10__completeB7v160006Ev, symObjAddr: 0x3BC8, symBinAddr: 0x100005BFC, symSize: 0x1C }
  - { offsetInCU: 0x1C6CF, offset: 0x1C6CF, size: 0x8, addend: 0x0, symName: __ZNSt3__128__exception_guard_exceptionsINS_6vectorIN2sf6VertexENS_9allocatorIS3_EEE16__destroy_vectorEED1B7v160006Ev, symObjAddr: 0x3BE4, symBinAddr: 0x100005C18, symSize: 0x2C }
  - { offsetInCU: 0x1C6F9, offset: 0x1C6F9, size: 0x8, addend: 0x0, symName: __ZNSt3__117__compressed_pairIPN2sf6VertexENS_9allocatorIS2_EEEC2B7v160006IDnS5_EEOT_OT0_, symObjAddr: 0x3C10, symBinAddr: 0x100005C44, symSize: 0x44 }
  - { offsetInCU: 0x1C751, offset: 0x1C751, size: 0x8, addend: 0x0, symName: __ZNSt3__122__compressed_pair_elemIPN2sf6VertexELi0ELb0EEC2B7v160006IDnvEEOT_, symObjAddr: 0x3C54, symBinAddr: 0x100005C88, symSize: 0x1C }
  - { offsetInCU: 0x1C793, offset: 0x1C793, size: 0x8, addend: 0x0, symName: __ZNSt3__122__compressed_pair_elemINS_9allocatorIN2sf6VertexEEELi1ELb1EEC2B7v160006IS4_vEEOT_, symObjAddr: 0x3C70, symBinAddr: 0x100005CA4, symSize: 0x18 }
  - { offsetInCU: 0x1C7D5, offset: 0x1C7D5, size: 0x8, addend: 0x0, symName: __ZNSt3__128__exception_guard_exceptionsINS_6vectorIN2sf6VertexENS_9allocatorIS3_EEE16__destroy_vectorEEC1B7v160006ES7_, symObjAddr: 0x3C88, symBinAddr: 0x100005CBC, symSize: 0x34 }
  - { offsetInCU: 0x1C80D, offset: 0x1C80D, size: 0x8, addend: 0x0, symName: __ZNSt3__128__exception_guard_exceptionsINS_6vectorIN2sf6VertexENS_9allocatorIS3_EEE16__destroy_vectorEEC2B7v160006ES7_, symObjAddr: 0x3CBC, symBinAddr: 0x100005CF0, symSize: 0x24 }
  - { offsetInCU: 0x1C845, offset: 0x1C845, size: 0x8, addend: 0x0, symName: __ZNSt3__16vectorIN2sf6VertexENS_9allocatorIS2_EEE16__destroy_vectorC2ERS5_, symObjAddr: 0x3CE0, symBinAddr: 0x100005D14, symSize: 0x20 }
  - { offsetInCU: 0x1C87E, offset: 0x1C87E, size: 0x8, addend: 0x0, symName: __ZNSt3__128__exception_guard_exceptionsINS_6vectorIN2sf6VertexENS_9allocatorIS3_EEE16__destroy_vectorEED2B7v160006Ev, symObjAddr: 0x3D00, symBinAddr: 0x100005D34, symSize: 0x48 }
  - { offsetInCU: 0x1C8A8, offset: 0x1C8A8, size: 0x8, addend: 0x0, symName: __ZNSt3__16vectorIN2sf6VertexENS_9allocatorIS2_EEE16__destroy_vectorclB7v160006Ev, symObjAddr: 0x3D48, symBinAddr: 0x100005D7C, symSize: 0x9C }
  - { offsetInCU: 0x1C8CE, offset: 0x1C8CE, size: 0x8, addend: 0x0, symName: __ZNKSt3__16vectorIN2sf6VertexENS_9allocatorIS2_EEE17__annotate_deleteB7v160006Ev, symObjAddr: 0x3DE4, symBinAddr: 0x100005E18, symSize: 0xD4 }
  - { offsetInCU: 0x1C8F4, offset: 0x1C8F4, size: 0x8, addend: 0x0, symName: __ZN2sf11VertexArrayD2Ev, symObjAddr: 0x3EC8, symBinAddr: 0x100005EFC, symSize: 0x78 }
  - { offsetInCU: 0x1C920, offset: 0x1C920, size: 0x8, addend: 0x0, symName: __ZNSt3__16vectorIN2sf6VertexENS_9allocatorIS2_EEED1B7v160006Ev, symObjAddr: 0x3F40, symBinAddr: 0x100005F74, symSize: 0x2C }
  - { offsetInCU: 0x1C94A, offset: 0x1C94A, size: 0x8, addend: 0x0, symName: __ZNSt3__16vectorIN2sf6VertexENS_9allocatorIS2_EEED2B7v160006Ev, symObjAddr: 0x3F6C, symBinAddr: 0x100005FA0, symSize: 0x3C }
  - { offsetInCU: 0x1C974, offset: 0x1C974, size: 0x8, addend: 0x0, symName: __ZN2sf15ContextSettingsC2Ejjjjjjb, symObjAddr: 0x3FA8, symBinAddr: 0x100005FDC, symSize: 0x74 }
  - { offsetInCU: 0x1CA00, offset: 0x1CA00, size: 0x8, addend: 0x0, symName: __ZN2sf6StringD2Ev, symObjAddr: 0x401C, symBinAddr: 0x100006050, symSize: 0x2C }
  - { offsetInCU: 0x1CA2C, offset: 0x1CA2C, size: 0x8, addend: 0x0, symName: __ZNSt3__112basic_stringIjNS_11char_traitsIjEENS_9allocatorIjEEED1Ev, symObjAddr: 0x4048, symBinAddr: 0x10000607C, symSize: 0x2C }
  - { offsetInCU: 0x1CA58, offset: 0x1CA58, size: 0x8, addend: 0x0, symName: __ZNSt3__112basic_stringIjNS_11char_traitsIjEENS_9allocatorIjEEED2Ev, symObjAddr: 0x4074, symBinAddr: 0x1000060A8, symSize: 0x7C }
  - { offsetInCU: 0x1CA84, offset: 0x1CA84, size: 0x8, addend: 0x0, symName: __ZNKSt3__112basic_stringIjNS_11char_traitsIjEENS_9allocatorIjEEE9__is_longB7v160006Ev, symObjAddr: 0x4100, symBinAddr: 0x100006134, symSize: 0x74 }
  - { offsetInCU: 0x1CAAA, offset: 0x1CAAA, size: 0x8, addend: 0x0, symName: __ZNSt3__116allocator_traitsINS_9allocatorIjEEE10deallocateB7v160006ERS2_Pjm, symObjAddr: 0x4174, symBinAddr: 0x1000061A8, symSize: 0x34 }
  - { offsetInCU: 0x1CAEC, offset: 0x1CAEC, size: 0x8, addend: 0x0, symName: __ZNSt3__112basic_stringIjNS_11char_traitsIjEENS_9allocatorIjEEE7__allocB7v160006Ev, symObjAddr: 0x41A8, symBinAddr: 0x1000061DC, symSize: 0x24 }
  - { offsetInCU: 0x1CB12, offset: 0x1CB12, size: 0x8, addend: 0x0, symName: __ZNSt3__112basic_stringIjNS_11char_traitsIjEENS_9allocatorIjEEE18__get_long_pointerB7v160006Ev, symObjAddr: 0x41CC, symBinAddr: 0x100006200, symSize: 0x28 }
  - { offsetInCU: 0x1CB38, offset: 0x1CB38, size: 0x8, addend: 0x0, symName: __ZNKSt3__112basic_stringIjNS_11char_traitsIjEENS_9allocatorIjEEE14__get_long_capB7v160006Ev, symObjAddr: 0x41F4, symBinAddr: 0x100006228, symSize: 0x30 }
  - { offsetInCU: 0x1CB5E, offset: 0x1CB5E, size: 0x8, addend: 0x0, symName: __ZNKSt3__117__compressed_pairINS_12basic_stringIjNS_11char_traitsIjEENS_9allocatorIjEEE5__repES5_E5firstB7v160006Ev, symObjAddr: 0x4224, symBinAddr: 0x100006258, symSize: 0x24 }
  - { offsetInCU: 0x1CB84, offset: 0x1CB84, size: 0x8, addend: 0x0, symName: __ZNKSt3__122__compressed_pair_elemINS_12basic_stringIjNS_11char_traitsIjEENS_9allocatorIjEEE5__repELi0ELb0EE5__getB7v160006Ev, symObjAddr: 0x4248, symBinAddr: 0x10000627C, symSize: 0x14 }
  - { offsetInCU: 0x1CBAA, offset: 0x1CBAA, size: 0x8, addend: 0x0, symName: __ZNSt3__19allocatorIjE10deallocateB7v160006EPjm, symObjAddr: 0x425C, symBinAddr: 0x100006290, symSize: 0x70 }
  - { offsetInCU: 0x1CBEC, offset: 0x1CBEC, size: 0x8, addend: 0x0, symName: __ZNSt3__117__compressed_pairINS_12basic_stringIjNS_11char_traitsIjEENS_9allocatorIjEEE5__repES5_E6secondB7v160006Ev, symObjAddr: 0x42CC, symBinAddr: 0x100006300, symSize: 0x24 }
  - { offsetInCU: 0x1CC12, offset: 0x1CC12, size: 0x8, addend: 0x0, symName: __ZNSt3__122__compressed_pair_elemINS_9allocatorIjEELi1ELb1EE5__getB7v160006Ev, symObjAddr: 0x42F0, symBinAddr: 0x100006324, symSize: 0x14 }
  - { offsetInCU: 0x1CC38, offset: 0x1CC38, size: 0x8, addend: 0x0, symName: __ZNSt3__117__compressed_pairINS_12basic_stringIjNS_11char_traitsIjEENS_9allocatorIjEEE5__repES5_E5firstB7v160006Ev, symObjAddr: 0x4304, symBinAddr: 0x100006338, symSize: 0x24 }
  - { offsetInCU: 0x1CC5E, offset: 0x1CC5E, size: 0x8, addend: 0x0, symName: __ZNSt3__122__compressed_pair_elemINS_12basic_stringIjNS_11char_traitsIjEENS_9allocatorIjEEE5__repELi0ELb0EE5__getB7v160006Ev, symObjAddr: 0x4328, symBinAddr: 0x10000635C, symSize: 0x14 }
  - { offsetInCU: 0x1CC84, offset: 0x1CC84, size: 0x8, addend: 0x0, symName: __ZN4CellC2Ev, symObjAddr: 0x433C, symBinAddr: 0x100006370, symSize: 0x30 }
  - { offsetInCU: 0x1CCB0, offset: 0x1CCB0, size: 0x8, addend: 0x0, symName: __ZN2sf4RectIfEC1Ev, symObjAddr: 0x436C, symBinAddr: 0x1000063A0, symSize: 0x2C }
  - { offsetInCU: 0x1CCDC, offset: 0x1CCDC, size: 0x8, addend: 0x0, symName: __ZN2sf4RectIfEC2Ev, symObjAddr: 0x4398, symBinAddr: 0x1000063CC, symSize: 0x28 }
  - { offsetInCU: 0x1CD08, offset: 0x1CD08, size: 0x8, addend: 0x0, symName: __ZN2sf4TextC2ERKS0_, symObjAddr: 0x43C0, symBinAddr: 0x1000063F4, symSize: 0x178 }
  - { offsetInCU: 0x1CD3D, offset: 0x1CD3D, size: 0x8, addend: 0x0, symName: __ZN2sf4TextD2Ev, symObjAddr: 0x4538, symBinAddr: 0x10000656C, symSize: 0x114 }
  - { offsetInCU: 0x1CD69, offset: 0x1CD69, size: 0x8, addend: 0x0, symName: __ZThn8_N2sf4TextD1Ev, symObjAddr: 0x464C, symBinAddr: 0x100006680, symSize: 0x1C }
  - { offsetInCU: 0x1CD7F, offset: 0x1CD7F, size: 0x8, addend: 0x0, symName: __ZNSt3__112basic_stringIcNS_11char_traitsIcEENS_9allocatorIcEEEC2B7v160006IDnEEPKc, symObjAddr: 0x4668, symBinAddr: 0x10000669C, symSize: 0x60 }
  - { offsetInCU: 0x1CDC3, offset: 0x1CDC3, size: 0x8, addend: 0x0, symName: __ZNSt3__117__compressed_pairINS_12basic_stringIcNS_11char_traitsIcEENS_9allocatorIcEEE5__repES5_EC1B7v160006INS_18__default_init_tagESA_EEOT_OT0_, symObjAddr: 0x46C8, symBinAddr: 0x1000066FC, symSize: 0x3C }
  - { offsetInCU: 0x1CE1B, offset: 0x1CE1B, size: 0x8, addend: 0x0, symName: __ZNSt3__111char_traitsIcE6lengthEPKc, symObjAddr: 0x4704, symBinAddr: 0x100006738, symSize: 0x48 }
  - { offsetInCU: 0x1CE3E, offset: 0x1CE3E, size: 0x8, addend: 0x0, symName: __ZNSt3__117__compressed_pairINS_12basic_stringIcNS_11char_traitsIcEENS_9allocatorIcEEE5__repES5_EC2B7v160006INS_18__default_init_tagESA_EEOT_OT0_, symObjAddr: 0x475C, symBinAddr: 0x100006790, symSize: 0x3C }
  - { offsetInCU: 0x1CE96, offset: 0x1CE96, size: 0x8, addend: 0x0, symName: __ZNSt3__122__compressed_pair_elemINS_12basic_stringIcNS_11char_traitsIcEENS_9allocatorIcEEE5__repELi0ELb0EEC2B7v160006ENS_18__default_init_tagE, symObjAddr: 0x4798, symBinAddr: 0x1000067CC, symSize: 0x14 }
  - { offsetInCU: 0x1CECA, offset: 0x1CECA, size: 0x8, addend: 0x0, symName: __ZNSt3__122__compressed_pair_elemINS_9allocatorIcEELi1ELb1EEC2B7v160006ENS_18__default_init_tagE, symObjAddr: 0x47AC, symBinAddr: 0x1000067E0, symSize: 0x2C }
  - { offsetInCU: 0x1CEFE, offset: 0x1CEFE, size: 0x8, addend: 0x0, symName: __ZNSt3__19allocatorIcEC2B7v160006Ev, symObjAddr: 0x47D8, symBinAddr: 0x10000680C, symSize: 0x2C }
  - { offsetInCU: 0x1CF28, offset: 0x1CF28, size: 0x8, addend: 0x0, symName: __ZNSt3__116__non_trivial_ifILb1ENS_9allocatorIcEEEC2B7v160006Ev, symObjAddr: 0x4804, symBinAddr: 0x100006838, symSize: 0x14 }
  - { offsetInCU: 0x1CF52, offset: 0x1CF52, size: 0x8, addend: 0x0, symName: __ZN2sf4RectIfEC2Effff, symObjAddr: 0x483C, symBinAddr: 0x100006870, symSize: 0x44 }
  - { offsetInCU: 0x1CFD4, offset: 0x1CFD4, size: 0x8, addend: 0x0, symName: __ZNKSt3__113basic_ostreamIcNS_11char_traitsIcEEE6sentrycvbB7v160006Ev, symObjAddr: 0x4A74, symBinAddr: 0x100006AA8, symSize: 0x1C }
  - { offsetInCU: 0x1CFFA, offset: 0x1CFFA, size: 0x8, addend: 0x0, symName: __ZNSt3__119ostreambuf_iteratorIcNS_11char_traitsIcEEEC1B7v160006ERNS_13basic_ostreamIcS2_EE, symObjAddr: 0x4CD8, symBinAddr: 0x100006D0C, symSize: 0x34 }
  - { offsetInCU: 0x1D032, offset: 0x1D032, size: 0x8, addend: 0x0, symName: __ZNKSt3__18ios_base5flagsB7v160006Ev, symObjAddr: 0x4D0C, symBinAddr: 0x100006D40, symSize: 0x18 }
  - { offsetInCU: 0x1D05A, offset: 0x1D05A, size: 0x8, addend: 0x0, symName: __ZNKSt3__19basic_iosIcNS_11char_traitsIcEEE4fillB7v160006Ev, symObjAddr: 0x4D24, symBinAddr: 0x100006D58, symSize: 0x64 }
  - { offsetInCU: 0x1D082, offset: 0x1D082, size: 0x8, addend: 0x0, symName: __ZNKSt3__119ostreambuf_iteratorIcNS_11char_traitsIcEEE6failedB7v160006Ev, symObjAddr: 0x4D88, symBinAddr: 0x100006DBC, symSize: 0x24 }
  - { offsetInCU: 0x1D0A8, offset: 0x1D0A8, size: 0x8, addend: 0x0, symName: __ZNSt3__19basic_iosIcNS_11char_traitsIcEEE8setstateB7v160006Ej, symObjAddr: 0x4DAC, symBinAddr: 0x100006DE0, symSize: 0x2C }
  - { offsetInCU: 0x1D0DD, offset: 0x1D0DD, size: 0x8, addend: 0x0, symName: __ZNKSt3__18ios_base5widthB7v160006Ev, symObjAddr: 0x4DD8, symBinAddr: 0x100006E0C, symSize: 0x18 }
  - { offsetInCU: 0x1D105, offset: 0x1D105, size: 0x8, addend: 0x0, symName: __ZNSt3__115basic_streambufIcNS_11char_traitsIcEEE5sputnB7v160006EPKcl, symObjAddr: 0x4DF0, symBinAddr: 0x100006E24, symSize: 0x3C }
  - { offsetInCU: 0x1D147, offset: 0x1D147, size: 0x8, addend: 0x0, symName: __ZNSt3__112basic_stringIcNS_11char_traitsIcEENS_9allocatorIcEEEC1B7v160006Emc, symObjAddr: 0x4E2C, symBinAddr: 0x100006E60, symSize: 0x3C }
  - { offsetInCU: 0x1D18F, offset: 0x1D18F, size: 0x8, addend: 0x0, symName: __ZNKSt3__112basic_stringIcNS_11char_traitsIcEENS_9allocatorIcEEE4dataB7v160006Ev, symObjAddr: 0x4E68, symBinAddr: 0x100006E9C, symSize: 0x28 }
  - { offsetInCU: 0x1D1B5, offset: 0x1D1B5, size: 0x8, addend: 0x0, symName: __ZNSt3__18ios_base5widthB7v160006El, symObjAddr: 0x4E90, symBinAddr: 0x100006EC4, symSize: 0x2C }
  - { offsetInCU: 0x1D1FB, offset: 0x1D1FB, size: 0x8, addend: 0x0, symName: __ZNSt3__112basic_stringIcNS_11char_traitsIcEENS_9allocatorIcEEEC2B7v160006Emc, symObjAddr: 0x4EBC, symBinAddr: 0x100006EF0, symSize: 0x54 }
  - { offsetInCU: 0x1D243, offset: 0x1D243, size: 0x8, addend: 0x0, symName: __ZNKSt3__112basic_stringIcNS_11char_traitsIcEENS_9allocatorIcEEE13__get_pointerB7v160006Ev, symObjAddr: 0x4F24, symBinAddr: 0x100006F58, symSize: 0x54 }
  - { offsetInCU: 0x1D269, offset: 0x1D269, size: 0x8, addend: 0x0, symName: __ZNKSt3__112basic_stringIcNS_11char_traitsIcEENS_9allocatorIcEEE9__is_longB7v160006Ev, symObjAddr: 0x4F78, symBinAddr: 0x100006FAC, symSize: 0x74 }
  - { offsetInCU: 0x1D28F, offset: 0x1D28F, size: 0x8, addend: 0x0, symName: __ZNKSt3__112basic_stringIcNS_11char_traitsIcEENS_9allocatorIcEEE18__get_long_pointerB7v160006Ev, symObjAddr: 0x4FEC, symBinAddr: 0x100007020, symSize: 0x28 }
  - { offsetInCU: 0x1D2B5, offset: 0x1D2B5, size: 0x8, addend: 0x0, symName: __ZNKSt3__112basic_stringIcNS_11char_traitsIcEENS_9allocatorIcEEE19__get_short_pointerB7v160006Ev, symObjAddr: 0x5014, symBinAddr: 0x100007048, symSize: 0x28 }
  - { offsetInCU: 0x1D2DB, offset: 0x1D2DB, size: 0x8, addend: 0x0, symName: __ZNKSt3__117__compressed_pairINS_12basic_stringIcNS_11char_traitsIcEENS_9allocatorIcEEE5__repES5_E5firstB7v160006Ev, symObjAddr: 0x503C, symBinAddr: 0x100007070, symSize: 0x24 }
  - { offsetInCU: 0x1D301, offset: 0x1D301, size: 0x8, addend: 0x0, symName: __ZNKSt3__122__compressed_pair_elemINS_12basic_stringIcNS_11char_traitsIcEENS_9allocatorIcEEE5__repELi0ELb0EE5__getB7v160006Ev, symObjAddr: 0x5060, symBinAddr: 0x100007094, symSize: 0x14 }
  - { offsetInCU: 0x1D327, offset: 0x1D327, size: 0x8, addend: 0x0, symName: __ZNSt3__114pointer_traitsIPKcE10pointer_toB7v160006ERS1_, symObjAddr: 0x5074, symBinAddr: 0x1000070A8, symSize: 0x14 }
  - { offsetInCU: 0x1D34A, offset: 0x1D34A, size: 0x8, addend: 0x0, symName: __ZNSt3__119ostreambuf_iteratorIcNS_11char_traitsIcEEEC2B7v160006ERNS_13basic_ostreamIcS2_EE, symObjAddr: 0x5088, symBinAddr: 0x1000070BC, symSize: 0x68 }
  - { offsetInCU: 0x1D382, offset: 0x1D382, size: 0x8, addend: 0x0, symName: __ZNKSt3__19basic_iosIcNS_11char_traitsIcEEE5rdbufB7v160006Ev, symObjAddr: 0x50F0, symBinAddr: 0x100007124, symSize: 0x24 }
  - { offsetInCU: 0x1D3AA, offset: 0x1D3AA, size: 0x8, addend: 0x0, symName: __ZNKSt3__18ios_base5rdbufB7v160006Ev, symObjAddr: 0x5114, symBinAddr: 0x100007148, symSize: 0x18 }
  - { offsetInCU: 0x1D3D0, offset: 0x1D3D0, size: 0x8, addend: 0x0, symName: __ZNSt3__111char_traitsIcE11eq_int_typeEii, symObjAddr: 0x512C, symBinAddr: 0x100007160, symSize: 0x28 }
  - { offsetInCU: 0x1D401, offset: 0x1D401, size: 0x8, addend: 0x0, symName: __ZNSt3__111char_traitsIcE3eofEv, symObjAddr: 0x5154, symBinAddr: 0x100007188, symSize: 0x8 }
  - { offsetInCU: 0x1D415, offset: 0x1D415, size: 0x8, addend: 0x0, symName: __ZNKSt3__19basic_iosIcNS_11char_traitsIcEEE5widenB7v160006Ec, symObjAddr: 0x515C, symBinAddr: 0x100007190, symSize: 0x8C }
  - { offsetInCU: 0x1D47E, offset: 0x1D47E, size: 0x8, addend: 0x0, symName: __ZNKSt3__15ctypeIcE5widenB7v160006Ec, symObjAddr: 0x5214, symBinAddr: 0x100007248, symSize: 0x38 }
  - { offsetInCU: 0x1D4B3, offset: 0x1D4B3, size: 0x8, addend: 0x0, symName: __ZNSt3__18ios_base8setstateB7v160006Ej, symObjAddr: 0x524C, symBinAddr: 0x100007280, symSize: 0x34 }
  - { offsetInCU: 0x1D4EA, offset: 0x1D4EA, size: 0x8, addend: 0x0, symName: __ZN2sf7Vector2IfEC2Eff, symObjAddr: 0x5280, symBinAddr: 0x1000072B4, symSize: 0x2C }
  - { offsetInCU: 0x1D541, offset: 0x1D541, size: 0x8, addend: 0x0, symName: __ZNKSt3__16__lessIffEclB7v160006ERKfS3_, symObjAddr: 0x5358, symBinAddr: 0x10000738C, symSize: 0x34 }
...
